target datalayout = "e-m:e-p270:32:32-p271:32:32-p272:64:64-i64:64-i128:128-f80:128-n8:16:32:64-S128"
target triple = "x86_64-pc-linux-gnu"

%struct.pmix_list_t = type { %struct.pmix_object_t, %struct.pmix_list_item_t, i64 }
%struct.pmix_object_t = type { %union.pthread_mutex_t, ptr, i32, %struct.pmix_tma }
%union.pthread_mutex_t = type { %struct.__pthread_mutex_s }
%struct.__pthread_mutex_s = type { i32, i32, i32, i32, i32, i16, i16, %struct.__pthread_internal_list }
%struct.__pthread_internal_list = type { ptr, ptr }
%struct.pmix_tma = type { ptr, ptr, ptr, ptr, ptr, ptr, ptr, ptr }
%struct.pmix_list_item_t = type { %struct.pmix_object_t, ptr, ptr, i32 }
%struct.prte_node_t = type { %struct.pmix_list_item_t, i32, ptr, ptr, ptr, ptr, ptr, ptr, i16, ptr, i16, i8, i32, i32, i32, i32, ptr, i8, %struct.pmix_list_t }
%struct.prte_topology_t = type { %struct.pmix_object_t, i32, ptr, ptr }
%struct.prte_rmaps_options_t = type { i16, i8, i32, i32, ptr, ptr, i8, i8, i8, i8, i8, i16, i8, i8, i16, i32, i32, i32, i32, i16, i8, i32, i32, i32, i16, i8, i32, i16, ptr, ptr }

; Function Attrs: nounwind uwtable
define void @prte_rmaps_base_get_cpuset(ptr noundef %0, ptr noundef %1, ptr noundef %2) #0 {
  %4 = alloca ptr, align 8
  %5 = alloca ptr, align 8
  %6 = alloca ptr, align 8
  store ptr %0, ptr %4, align 8, !tbaa !3
  store ptr %1, ptr %5, align 8, !tbaa !3
  store ptr %2, ptr %6, align 8, !tbaa !3
  %7 = load ptr, ptr %6, align 8, !tbaa !3
  %8 = getelementptr inbounds nuw %struct.prte_rmaps_options_t, ptr %7, i32 0, i32 4
  %9 = load ptr, ptr %8, align 8, !tbaa !152
  %10 = icmp ne ptr null, %9
  br i1 %10, label %11, label %27

11:                                               ; preds = %3
  %12 = load ptr, ptr %5, align 8, !tbaa !3
  %13 = getelementptr inbounds nuw %struct.prte_node_t, ptr %12, i32 0, i32 16
  %14 = load ptr, ptr %13, align 8, !tbaa !80
  %15 = getelementptr inbounds nuw %struct.prte_topology_t, ptr %14, i32 0, i32 2
  %16 = load ptr, ptr %15, align 8, !tbaa !81
  %17 = load ptr, ptr %6, align 8, !tbaa !3
  %18 = getelementptr inbounds nuw %struct.prte_rmaps_options_t, ptr %17, i32 0, i32 1
  %19 = load i8, ptr %18, align 2, !tbaa !137, !range !15, !noundef !16
  %20 = trunc i8 %19 to i1
  %21 = load ptr, ptr %6, align 8, !tbaa !3
  %22 = getelementptr inbounds nuw %struct.prte_rmaps_options_t, ptr %21, i32 0, i32 4
  %23 = load ptr, ptr %22, align 8, !tbaa !152
  %24 = call ptr @prte_hwloc_base_generate_cpuset(ptr noundef %16, i1 noundef zeroext %20, ptr noundef %23)
  %25 = load ptr, ptr %6, align 8, !tbaa !3
  %26 = getelementptr inbounds nuw %struct.prte_rmaps_options_t, ptr %25, i32 0, i32 5
  store ptr %24, ptr %26, align 8, !tbaa !128
  br label %34

27:                                               ; preds = %3
  %28 = load ptr, ptr %5, align 8, !tbaa !3
  %29 = getelementptr inbounds nuw %struct.prte_node_t, ptr %28, i32 0, i32 6
  %30 = load ptr, ptr %29, align 8, !tbaa !85
  %31 = call noalias ptr @hwloc_bitmap_dup(ptr noundef %30)
  %32 = load ptr, ptr %6, align 8, !tbaa !3
  %33 = getelementptr inbounds nuw %struct.prte_rmaps_options_t, ptr %32, i32 0, i32 5
  store ptr %31, ptr %33, align 8, !tbaa !128
  br label %34

34:                                               ; preds = %27, %11
  ret void
}