; Function Attrs: nounwind uwtable
define void @prte_rmaps_base_get_cpuset(ptr noundef readnone captures(none) %0, ptr noundef readonly captures(none) %1, ptr noundef captures(none) initializes((24, 32)) %2) local_unnamed_addr #0 {
  %4 = getelementptr inbounds nuw i8, ptr %2, i64 16
  %5 = load ptr, ptr %4, align 8, !tbaa !131
  %.not = icmp eq ptr %5, null
  br i1 %.not, label %15, label %6

6:                                                ; preds = %3
  %7 = getelementptr inbounds nuw i8, ptr %1, i64 240
  %8 = load ptr, ptr %7, align 8, !tbaa !78
  %9 = getelementptr inbounds nuw i8, ptr %8, i64 128
  %10 = load ptr, ptr %9, align 8, !tbaa !79
  %11 = getelementptr inbounds nuw i8, ptr %2, i64 2
  %12 = load i8, ptr %11, align 2, !tbaa !116, !range !27, !noundef !28
  %13 = trunc nuw i8 %12 to i1
  %14 = tail call ptr @prte_hwloc_base_generate_cpuset(ptr noundef %10, i1 noundef zeroext %13, ptr noundef nonnull %5) #11
  br label %19

15:                                               ; preds = %3
  %16 = getelementptr inbounds nuw i8, ptr %1, i64 184
  %17 = load ptr, ptr %16, align 8, !tbaa !83
  %18 = tail call noalias ptr @hwloc_bitmap_dup(ptr noundef %17) #11
  br label %19

19:                                               ; preds = %15, %6
  %.sink = phi ptr [ %18, %15 ], [ %14, %6 ]
  %20 = getelementptr inbounds nuw i8, ptr %2, i64 24
  store ptr %.sink, ptr %20, align 8, !tbaa !107
  ret void
}